target datalayout = "e-m:e-p270:32:32-p271:32:32-p272:64:64-i64:64-i128:128-f80:128-n8:16:32:64-S128"
target triple = "x86_64-unknown-linux-gnu"

%struct.DeviceClass = type { %struct.ObjectClass, [1 x i64], ptr, ptr, ptr, i8, i8, ptr, ptr, ptr, ptr, ptr }
%struct.ObjectClass = type { ptr, ptr, [4 x ptr], [4 x ptr], ptr, ptr }
%struct.PCIDeviceClass = type { %struct.DeviceClass, ptr, ptr, ptr, ptr, i16, i16, i8, i16, i16, i16, ptr }

@.str.63 = private unnamed_addr constant [11 x i8] c"pci-device\00", align 1
@.str.68 = private unnamed_addr constant [106 x i8] c"/home/dtcxzyw/WorkSpace/Projects/compilers/llvm-opt-benchmark/bench/qemu/qemu/include/hw/pci/pci_device.h\00", align 1
@.str.70 = private unnamed_addr constant [33 x i8] c"VFIO-based PCI device assignment\00", align 1
@.str.71 = private unnamed_addr constant [7 x i8] c"device\00", align 1
@.str.72 = private unnamed_addr constant [101 x i8] c"/home/dtcxzyw/WorkSpace/Projects/compilers/llvm-opt-benchmark/bench/qemu/qemu/include/hw/qdev-core.h\00", align 1
@__func__.DEVICE_CLASS = private unnamed_addr constant [13 x i8] c"DEVICE_CLASS\00", align 1
@__func__.PCI_DEVICE_CLASS = private unnamed_addr constant [17 x i8] c"PCI_DEVICE_CLASS\00", align 1

; Function Attrs: nounwind sspstrong uwtable
define internal void @set_bit(i64 noundef %nr, ptr noundef %addr) #0 {
entry:
  %nr.addr = alloca i64, align 8
  %addr.addr = alloca ptr, align 8
  %mask = alloca i64, align 8
  %p = alloca ptr, align 8
  store i64 %nr, ptr %nr.addr, align 8
  store ptr %addr, ptr %addr.addr, align 8
  %0 = load i64, ptr %nr.addr, align 8
  %rem = urem i64 %0, 64
  %shl = shl i64 1, %rem
  store i64 %shl, ptr %mask, align 8
  %1 = load ptr, ptr %addr.addr, align 8
  %2 = load i64, ptr %nr.addr, align 8
  %div = udiv i64 %2, 64
  %add.ptr = getelementptr i64, ptr %1, i64 %div
  store ptr %add.ptr, ptr %p, align 8
  %3 = load i64, ptr %mask, align 8
  %4 = load ptr, ptr %p, align 8
  %5 = load i64, ptr %4, align 8
  %or = or i64 %5, %3
  store i64 %or, ptr %4, align 8
  ret void
}

; Function Attrs: nounwind sspstrong uwtable
define internal ptr @PCI_DEVICE_CLASS(ptr noundef %klass) #0 {
entry:
  %klass.addr = alloca ptr, align 8
  store ptr %klass, ptr %klass.addr, align 8
  %0 = load ptr, ptr %klass.addr, align 8
  %call = call ptr @object_class_dynamic_cast_assert(ptr noundef %0, ptr noundef @.str.63, ptr noundef @.str.68, i32 noundef 10, ptr noundef @__func__.PCI_DEVICE_CLASS)
  ret ptr %call
}

; Function Attrs: nounwind sspstrong uwtable
define internal ptr @DEVICE_CLASS(ptr noundef %klass) #0 {
entry:
  %klass.addr = alloca ptr, align 8
  store ptr %klass, ptr %klass.addr, align 8
  %0 = load ptr, ptr %klass.addr, align 8
  %call = call ptr @object_class_dynamic_cast_assert(ptr noundef %0, ptr noundef @.str.71, ptr noundef @.str.72, i32 noundef 77, ptr noundef @__func__.DEVICE_CLASS)
  ret ptr %call
}

; Function Attrs: nounwind sspstrong uwtable
define internal void @vfio_pci_dev_class_init(ptr noundef %klass, ptr noundef %data) #0 {
entry:
  %klass.addr = alloca ptr, align 8
  %data.addr = alloca ptr, align 8
  %dc = alloca ptr, align 8
  %pdc = alloca ptr, align 8
  store ptr %klass, ptr %klass.addr, align 8
  store ptr %data, ptr %data.addr, align 8
  %0 = load ptr, ptr %klass.addr, align 8
  %call = call ptr @DEVICE_CLASS(ptr noundef %0)
  store ptr %call, ptr %dc, align 8
  %1 = load ptr, ptr %klass.addr, align 8
  %call1 = call ptr @PCI_DEVICE_CLASS(ptr noundef %1)
  store ptr %call1, ptr %pdc, align 8
  %2 = load ptr, ptr %dc, align 8
  %reset = getelementptr inbounds %struct.DeviceClass, ptr %2, i32 0, i32 7
  store ptr @vfio_pci_reset, ptr %reset, align 8
  %3 = load ptr, ptr %dc, align 8
  call void @device_class_set_props(ptr noundef %3, ptr noundef @vfio_pci_dev_properties)
  %4 = load ptr, ptr %dc, align 8
  %desc = getelementptr inbounds %struct.DeviceClass, ptr %4, i32 0, i32 3
  store ptr @.str.70, ptr %desc, align 8
  %5 = load ptr, ptr %dc, align 8
  %categories = getelementptr inbounds %struct.DeviceClass, ptr %5, i32 0, i32 1
  %arraydecay = getelementptr inbounds [1 x i64], ptr %categories, i64 0, i64 0
  call void @set_bit(i64 noundef 7, ptr noundef %arraydecay)
  %6 = load ptr, ptr %pdc, align 8
  %realize = getelementptr inbounds %struct.PCIDeviceClass, ptr %6, i32 0, i32 1
  store ptr @vfio_realize, ptr %realize, align 8
  %7 = load ptr, ptr %pdc, align 8
  %exit = getelementptr inbounds %struct.PCIDeviceClass, ptr %7, i32 0, i32 2
  store ptr @vfio_exitfn, ptr %exit, align 8
  %8 = load ptr, ptr %pdc, align 8
  %config_read = getelementptr inbounds %struct.PCIDeviceClass, ptr %8, i32 0, i32 3
  store ptr @vfio_pci_read_config, ptr %config_read, align 8
  %9 = load ptr, ptr %pdc, align 8
  %config_write = getelementptr inbounds %struct.PCIDeviceClass, ptr %9, i32 0, i32 4
  store ptr @vfio_pci_write_config, ptr %config_write, align 8
  ret void
}