; Function Attrs: nounwind sspstrong uwtable
define internal void @vfio_pci_dev_class_init(ptr noundef %klass, ptr readnone captures(none) %data) #0 {
entry:
  %call.i = tail call ptr @object_class_dynamic_cast_assert(ptr noundef %klass, ptr noundef nonnull @.str.71, ptr noundef nonnull @.str.72, i32 noundef 77, ptr noundef nonnull @__func__.DEVICE_CLASS) #23
  %call.i8 = tail call ptr @object_class_dynamic_cast_assert(ptr noundef %klass, ptr noundef nonnull @.str.63, ptr noundef nonnull @.str.68, i32 noundef 10, ptr noundef nonnull @__func__.PCI_DEVICE_CLASS) #23
  %reset = getelementptr inbounds nuw i8, ptr %call.i, i64 136
  store ptr @vfio_pci_reset, ptr %reset, align 8
  tail call void @device_class_set_props(ptr noundef %call.i, ptr noundef nonnull @vfio_pci_dev_properties) #23
  %desc = getelementptr inbounds nuw i8, ptr %call.i, i64 112
  store ptr @.str.70, ptr %desc, align 8
  %categories = getelementptr inbounds nuw i8, ptr %call.i, i64 96
  %0 = load i64, ptr %categories, align 8
  %or.i = or i64 %0, 128
  store i64 %or.i, ptr %categories, align 8
  %realize = getelementptr inbounds nuw i8, ptr %call.i8, i64 176
  store ptr @vfio_realize, ptr %realize, align 8
  %exit = getelementptr inbounds nuw i8, ptr %call.i8, i64 184
  store ptr @vfio_exitfn, ptr %exit, align 8
  %config_read = getelementptr inbounds nuw i8, ptr %call.i8, i64 192
  store ptr @vfio_pci_read_config, ptr %config_read, align 8
  %config_write = getelementptr inbounds nuw i8, ptr %call.i8, i64 200
  store ptr @vfio_pci_write_config, ptr %config_write, align 8
  ret void
}